target datalayout = "e-m:e-p270:32:32-p271:32:32-p272:64:64-i64:64-i128:128-f80:128-n8:16:32:64-S128"
target triple = "x86_64-pc-linux-gnu"

%struct.ImGuiStyle = type { float, float, %struct.ImVec2, float, float, float, %struct.ImVec2, %struct.ImVec2, i32, float, float, float, float, %struct.ImVec2, float, float, %struct.ImVec2, %struct.ImVec2, %struct.ImVec2, %struct.ImVec2, float, float, float, float, float, float, float, float, float, float, float, float, float, float, %struct.ImVec2, i32, %struct.ImVec2, %struct.ImVec2, float, %struct.ImVec2, %struct.ImVec2, %struct.ImVec2, %struct.ImVec2, float, i8, i8, i8, float, float, [56 x %struct.ImVec4], float, float, float, i32, i32 }
%struct.ImVec2 = type { float, float }
%struct.ImVec4 = type { float, float, float, float }
%struct.EnumDesc = type { i32, ptr, ptr }

@.str.251 = private unnamed_addr constant [1 x i8] zeroinitializer, align 1
@.str.304 = private unnamed_addr constant [4 x i8] c"(?)\00", align 1
@.str.1793 = private unnamed_addr constant [14 x i8] c"Sizing Policy\00", align 1
@.str.1794 = private unnamed_addr constant [4 x i8] c"%s:\00", align 1

; Function Attrs: mustprogress nounwind uwtable
define linkonce_odr void @_ZN6ImVec2C2Eff(ptr noundef nonnull align 4 dereferenceable(8) %0, float noundef %1, float noundef %2) unnamed_addr #3 comdat align 2 {
  %4 = alloca ptr, align 8
  %5 = alloca float, align 4
  %6 = alloca float, align 4
  store ptr %0, ptr %4, align 8, !tbaa !184
  store float %1, ptr %5, align 4, !tbaa !83
  store float %2, ptr %6, align 4, !tbaa !83
  %7 = load ptr, ptr %4, align 8
  %8 = getelementptr inbounds nuw %struct.ImVec2, ptr %7, i32 0, i32 0
  %9 = load float, ptr %5, align 4, !tbaa !83
  store float %9, ptr %8, align 4, !tbaa !89
  %10 = getelementptr inbounds nuw %struct.ImVec2, ptr %7, i32 0, i32 1
  %11 = load float, ptr %6, align 4, !tbaa !83
  store float %11, ptr %10, align 4, !tbaa !90
  ret void
}

; Function Attrs: mustprogress uwtable
define internal void @_ZL20EditTableSizingFlagsPi(ptr noundef %0) #0 {
  %2 = alloca ptr, align 8
  %3 = alloca i32, align 4
  %4 = alloca ptr, align 8
  %5 = alloca i32, align 4
  %6 = alloca %struct.ImVec2, align 4
  %7 = alloca i32, align 4
  store ptr %0, ptr %2, align 8, !tbaa !170
  call void @llvm.lifetime.start.p0(i64 4, ptr %3) #2
  store i32 0, ptr %3, align 4, !tbaa !33
  br label %8

8:                                                ; preds = %23, %1
  %9 = load i32, ptr %3, align 4, !tbaa !33
  %10 = icmp slt i32 %9, 5
  br i1 %10, label %11, label %26

11:                                               ; preds = %8
  %12 = load i32, ptr %3, align 4, !tbaa !33
  %13 = sext i32 %12 to i64
  %14 = getelementptr inbounds [5 x %struct.EnumDesc], ptr @_ZZL20EditTableSizingFlagsPiE8policies, i64 0, i64 %13
  %15 = getelementptr inbounds nuw %struct.EnumDesc, ptr %14, i32 0, i32 0
  %16 = load i32, ptr %15, align 8, !tbaa !527
  %17 = load ptr, ptr %2, align 8, !tbaa !170
  %18 = load i32, ptr %17, align 4, !tbaa !33
  %19 = and i32 %18, 57344
  %20 = icmp eq i32 %16, %19
  br i1 %20, label %21, label %22

21:                                               ; preds = %11
  br label %26

22:                                               ; preds = %11
  br label %23

23:                                               ; preds = %22
  %24 = load i32, ptr %3, align 4, !tbaa !33
  %25 = add nsw i32 %24, 1
  store i32 %25, ptr %3, align 4, !tbaa !33
  br label %8, !llvm.loop !529

26:                                               ; preds = %21, %8
  call void @llvm.lifetime.start.p0(i64 8, ptr %4) #2
  %27 = load i32, ptr %3, align 4, !tbaa !33
  %28 = icmp slt i32 %27, 5
  br i1 %28, label %29, label %39

29:                                               ; preds = %26
  %30 = load i32, ptr %3, align 4, !tbaa !33
  %31 = sext i32 %30 to i64
  %32 = getelementptr inbounds [5 x %struct.EnumDesc], ptr @_ZZL20EditTableSizingFlagsPiE8policies, i64 0, i64 %31
  %33 = getelementptr inbounds nuw %struct.EnumDesc, ptr %32, i32 0, i32 1
  %34 = load ptr, ptr %33, align 8, !tbaa !530
  %35 = load i32, ptr %3, align 4, !tbaa !33
  %36 = icmp sgt i32 %35, 0
  %37 = select i1 %36, i64 15, i64 0
  %38 = getelementptr inbounds nuw i8, ptr %34, i64 %37
  br label %40

39:                                               ; preds = %26
  br label %40

40:                                               ; preds = %39, %29
  %41 = phi ptr [ %38, %29 ], [ @.str.251, %39 ]
  store ptr %41, ptr %4, align 8, !tbaa !106
  %42 = load ptr, ptr %4, align 8, !tbaa !106
  %43 = call noundef zeroext i1 @_ZN5ImGui10BeginComboEPKcS1_i(ptr noundef @.str.1793, ptr noundef %42, i32 noundef 0)
  br i1 %43, label %44, label %75

44:                                               ; preds = %40
  call void @llvm.lifetime.start.p0(i64 4, ptr %5) #2
  store i32 0, ptr %5, align 4, !tbaa !33
  br label %45

45:                                               ; preds = %71, %44
  %46 = load i32, ptr %5, align 4, !tbaa !33
  %47 = icmp slt i32 %46, 5
  br i1 %47, label %49, label %48

48:                                               ; preds = %45
  call void @llvm.lifetime.end.p0(i64 4, ptr %5) #2
  br label %74

49:                                               ; preds = %45
  %50 = load i32, ptr %5, align 4, !tbaa !33
  %51 = sext i32 %50 to i64
  %52 = getelementptr inbounds [5 x %struct.EnumDesc], ptr @_ZZL20EditTableSizingFlagsPiE8policies, i64 0, i64 %51
  %53 = getelementptr inbounds nuw %struct.EnumDesc, ptr %52, i32 0, i32 1
  %54 = load ptr, ptr %53, align 8, !tbaa !530
  %55 = load i32, ptr %3, align 4, !tbaa !33
  %56 = load i32, ptr %5, align 4, !tbaa !33
  %57 = icmp eq i32 %55, %56
  call void @llvm.lifetime.start.p0(i64 8, ptr %6) #2
  call void @_ZN6ImVec2C2Eff(ptr noundef nonnull align 4 dereferenceable(8) %6, float noundef 0.000000e+00, float noundef 0.000000e+00)
  %58 = call noundef zeroext i1 @_ZN5ImGui10SelectableEPKcbiRK6ImVec2(ptr noundef %54, i1 noundef zeroext %57, i32 noundef 0, ptr noundef nonnull align 4 dereferenceable(8) %6)
  call void @llvm.lifetime.end.p0(i64 8, ptr %6) #2
  br i1 %58, label %59, label %70

59:                                               ; preds = %49
  %60 = load ptr, ptr %2, align 8, !tbaa !170
  %61 = load i32, ptr %60, align 4, !tbaa !33
  %62 = and i32 %61, -57345
  %63 = load i32, ptr %5, align 4, !tbaa !33
  %64 = sext i32 %63 to i64
  %65 = getelementptr inbounds [5 x %struct.EnumDesc], ptr @_ZZL20EditTableSizingFlagsPiE8policies, i64 0, i64 %64
  %66 = getelementptr inbounds nuw %struct.EnumDesc, ptr %65, i32 0, i32 0
  %67 = load i32, ptr %66, align 8, !tbaa !527
  %68 = or i32 %62, %67
  %69 = load ptr, ptr %2, align 8, !tbaa !170
  store i32 %68, ptr %69, align 4, !tbaa !33
  br label %70

70:                                               ; preds = %59, %49
  br label %71

71:                                               ; preds = %70
  %72 = load i32, ptr %5, align 4, !tbaa !33
  %73 = add nsw i32 %72, 1
  store i32 %73, ptr %5, align 4, !tbaa !33
  br label %45, !llvm.loop !531

74:                                               ; preds = %48
  call void @_ZN5ImGui8EndComboEv()
  br label %75

75:                                               ; preds = %74, %40
  call void @_ZN5ImGui8SameLineEff(float noundef 0.000000e+00, float noundef -1.000000e+00)
  call void (ptr, ...) @_ZN5ImGui12TextDisabledEPKcz(ptr noundef @.str.304)
  %76 = call noundef zeroext i1 @_ZN5ImGui16BeginItemTooltipEv()
  br i1 %76, label %77, label %104

77:                                               ; preds = %75
  %78 = call noundef float @_ZN5ImGui11GetFontSizeEv()
  %79 = fmul float %78, 5.000000e+01
  call void @_ZN5ImGui15PushTextWrapPosEf(float noundef %79)
  call void @llvm.lifetime.start.p0(i64 4, ptr %7) #2
  store i32 0, ptr %7, align 4, !tbaa !33
  br label %80

80:                                               ; preds = %100, %77
  %81 = load i32, ptr %7, align 4, !tbaa !33
  %82 = icmp slt i32 %81, 5
  br i1 %82, label %84, label %83

83:                                               ; preds = %80
  call void @llvm.lifetime.end.p0(i64 4, ptr %7) #2
  br label %103

84:                                               ; preds = %80
  call void @_ZN5ImGui9SeparatorEv()
  %85 = load i32, ptr %7, align 4, !tbaa !33
  %86 = sext i32 %85 to i64
  %87 = getelementptr inbounds [5 x %struct.EnumDesc], ptr @_ZZL20EditTableSizingFlagsPiE8policies, i64 0, i64 %86
  %88 = getelementptr inbounds nuw %struct.EnumDesc, ptr %87, i32 0, i32 1
  %89 = load ptr, ptr %88, align 8, !tbaa !530
  call void (ptr, ...) @_ZN5ImGui4TextEPKcz(ptr noundef @.str.1794, ptr noundef %89)
  call void @_ZN5ImGui9SeparatorEv()
  %90 = call noundef float @_ZN5ImGui13GetCursorPosXEv()
  %91 = call noundef nonnull align 4 dereferenceable(1164) ptr @_ZN5ImGui8GetStyleEv()
  %92 = getelementptr inbounds nuw %struct.ImGuiStyle, ptr %91, i32 0, i32 20
  %93 = load float, ptr %92, align 4, !tbaa !532
  %94 = call float @llvm.fmuladd.f32(float %93, float 5.000000e-01, float %90)
  call void @_ZN5ImGui13SetCursorPosXEf(float noundef %94)
  %95 = load i32, ptr %7, align 4, !tbaa !33
  %96 = sext i32 %95 to i64
  %97 = getelementptr inbounds [5 x %struct.EnumDesc], ptr @_ZZL20EditTableSizingFlagsPiE8policies, i64 0, i64 %96
  %98 = getelementptr inbounds nuw %struct.EnumDesc, ptr %97, i32 0, i32 2
  %99 = load ptr, ptr %98, align 8, !tbaa !533
  call void @_ZN5ImGui15TextUnformattedEPKcS1_(ptr noundef %99, ptr noundef null)
  br label %100

100:                                              ; preds = %84
  %101 = load i32, ptr %7, align 4, !tbaa !33
  %102 = add nsw i32 %101, 1
  store i32 %102, ptr %7, align 4, !tbaa !33
  br label %80, !llvm.loop !534

103:                                              ; preds = %83
  call void @_ZN5ImGui14PopTextWrapPosEv()
  call void @_ZN5ImGui10EndTooltipEv()
  br label %104

104:                                              ; preds = %103, %75
  call void @llvm.lifetime.end.p0(i64 8, ptr %4) #2
  call void @llvm.lifetime.end.p0(i64 4, ptr %3) #2
  ret void
}